target datalayout = "e-m:e-p270:32:32-p271:32:32-p272:64:64-i64:64-i128:128-f80:128-n8:16:32:64-S128"
target triple = "x86_64-pc-linux-gnu"

; Function Attrs: mustprogress nounwind uwtable
define hidden noundef ptr @_ZNK24SafePointScalarMergeNode5cloneEP4DictRb(ptr noundef nonnull align 8 dereferenceable(68) %0, ptr noundef %1, ptr noundef nonnull align 1 dereferenceable(1) %2) #1 align 2 {
  %4 = alloca ptr, align 8
  %5 = alloca ptr, align 8
  %6 = alloca ptr, align 8
  %7 = alloca ptr, align 8
  %8 = alloca ptr, align 8
  %9 = alloca ptr, align 8
  store ptr %0, ptr %5, align 8
  store ptr %1, ptr %6, align 8
  store ptr %2, ptr %7, align 8
  %10 = load ptr, ptr %5, align 8
  %11 = load ptr, ptr %6, align 8
  %12 = call noundef ptr @_ZNK4DictixEPKv(ptr noundef nonnull align 8 dereferenceable(40) %11, ptr noundef %10)
  store ptr %12, ptr %8, align 8
  %13 = load ptr, ptr %8, align 8
  %14 = icmp ne ptr %13, null
  br i1 %14, label %15, label %18

15:                                               ; preds = %3
  %16 = load ptr, ptr %7, align 8
  store i8 0, ptr %16, align 1
  %17 = load ptr, ptr %8, align 8
  store ptr %17, ptr %4, align 8
  br label %25

18:                                               ; preds = %3
  %19 = load ptr, ptr %7, align 8
  store i8 1, ptr %19, align 1
  %20 = call noundef ptr @_ZNK4Node5cloneEv(ptr noundef nonnull align 8 dereferenceable(52) %10)
  store ptr %20, ptr %9, align 8
  %21 = load ptr, ptr %6, align 8
  %22 = load ptr, ptr %9, align 8
  %23 = call noundef ptr @_ZN4Dict6InsertEPvS0_b(ptr noundef nonnull align 8 dereferenceable(40) %21, ptr noundef %10, ptr noundef %22, i1 noundef zeroext true)
  %24 = load ptr, ptr %9, align 8
  store ptr %24, ptr %4, align 8
  br label %25

25:                                               ; preds = %18, %15
  %26 = load ptr, ptr %4, align 8
  ret ptr %26
}